; Function Attrs: mustprogress uwtable
define hidden void @_ZN4cvc58internal6theory11quantifiers7fmcheck16FullModelChecker6mkCondERKSt6vectorINS0_12NodeTemplateILb1EEESaIS7_EE(ptr noalias sret(%"class.cvc5::internal::NodeTemplate") align 8 %agg.result, ptr nocapture noundef nonnull readnone align 8 dereferenceable(640) %this, ptr nocapture noundef nonnull readonly align 8 dereferenceable(24) %cond) local_unnamed_addr #3 align 2 personality ptr @__gxx_personality_v0 {
entry:
  %agg.tmp.i.i.i = alloca %"class.cvc5::internal::NodeTemplate.648", align 8
  %nb.i = alloca %"class.cvc5::internal::NodeBuilder", align 8
  %call = tail call noundef ptr @_ZN4cvc58internal11NodeManager9currentNMEv()
  call void @llvm.lifetime.start.p0(i64 120, ptr nonnull %nb.i)
  call void @_ZN4cvc58internal11NodeBuilderC1EPNS0_11NodeManagerENS0_4kind6Kind_tE(ptr noundef nonnull align 8 dereferenceable(116) %nb.i, ptr noundef nonnull %call, i32 noundef 24), !noalias !187
  %0 = load ptr, ptr %cond, align 8, !noalias !187
  %_M_finish.i.i.i = getelementptr inbounds i8, ptr %cond, i64 8
  %1 = load ptr, ptr %_M_finish.i.i.i, align 8, !noalias !187
  call void @llvm.lifetime.start.p0(i64 8, ptr nonnull %agg.tmp.i.i.i), !noalias !187
  %cmp.i.not3.i.i.i = icmp eq ptr %1, %0
  br i1 %cmp.i.not3.i.i.i, label %invoke.cont.i, label %for.body.i.i.i

for.body.i.i.i:                                   ; preds = %entry, %call3.i.i.noexc.i
  %i.sroa.0.04.i.i.i = phi ptr [ %incdec.ptr.i.i.i.i, %call3.i.i.noexc.i ], [ %0, %entry ]
  %2 = load ptr, ptr %i.sroa.0.04.i.i.i, align 8, !noalias !187
  store ptr %2, ptr %agg.tmp.i.i.i, align 8, !noalias !187
  %call3.i.i1.i = invoke noundef nonnull align 8 dereferenceable(116) ptr @_ZN4cvc58internal11NodeBuilder6appendENS0_12NodeTemplateILb0EEE(ptr noundef nonnull align 8 dereferenceable(116) %nb.i, ptr noundef nonnull %agg.tmp.i.i.i)
          to label %call3.i.i.noexc.i unwind label %lpad.loopexit.i, !noalias !187

call3.i.i.noexc.i:                                ; preds = %for.body.i.i.i
  %incdec.ptr.i.i.i.i = getelementptr inbounds i8, ptr %i.sroa.0.04.i.i.i, i64 8
  %cmp.i.not.i.i.i = icmp eq ptr %incdec.ptr.i.i.i.i, %1
  br i1 %cmp.i.not.i.i.i, label %invoke.cont.i, label %for.body.i.i.i, !llvm.loop !69

invoke.cont.i:                                    ; preds = %call3.i.i.noexc.i, %entry
  call void @llvm.lifetime.end.p0(i64 8, ptr nonnull %agg.tmp.i.i.i), !noalias !187
  invoke void @_ZN4cvc58internal11NodeBuilder13constructNodeEv(ptr sret(%"class.cvc5::internal::NodeTemplate") align 8 %agg.result, ptr noundef nonnull align 8 dereferenceable(116) %nb.i)
          to label %_ZN4cvc58internal11NodeManager6mkNodeILb1EEENS0_12NodeTemplateILb1EEENS0_4kind6Kind_tERKSt6vectorINS3_IXT_EEESaIS8_EE.exit unwind label %lpad.loopexit.split-lp.i

lpad.loopexit.i:                                  ; preds = %for.body.i.i.i
  %lpad.loopexit2.i = landingpad { ptr, i32 }
          cleanup
  br label %lpad.i

lpad.loopexit.split-lp.i:                         ; preds = %invoke.cont.i
  %lpad.loopexit.split-lp3.i = landingpad { ptr, i32 }
          cleanup
  br label %lpad.i

lpad.i:                                           ; preds = %lpad.loopexit.split-lp.i, %lpad.loopexit.i
  %lpad.phi.i = phi { ptr, i32 } [ %lpad.loopexit2.i, %lpad.loopexit.i ], [ %lpad.loopexit.split-lp3.i, %lpad.loopexit.split-lp.i ]
  call void @_ZN4cvc58internal11NodeBuilderD1Ev(ptr noundef nonnull align 8 dereferenceable(116) %nb.i) #21
  resume { ptr, i32 } %lpad.phi.i

_ZN4cvc58internal11NodeManager6mkNodeILb1EEENS0_12NodeTemplateILb1EEENS0_4kind6Kind_tERKSt6vectorINS3_IXT_EEESaIS8_EE.exit: ; preds = %invoke.cont.i
  call void @_ZN4cvc58internal11NodeBuilderD1Ev(ptr noundef nonnull align 8 dereferenceable(116) %nb.i) #21
  call void @llvm.lifetime.end.p0(i64 120, ptr nonnull %nb.i)
  ret void
}